; Function Attrs: mustprogress uwtable
define hidden void @_ZN2cv3dnn14dnn4_v2024122318getChannelFromBlobERNS_3MatERKNS_11_InputArrayEiiiii(ptr noundef nonnull align 8 dereferenceable(96) %0, ptr noundef nonnull align 8 dereferenceable(24) %1, i32 noundef %2, i32 noundef %3, i32 noundef %4, i32 noundef %5, i32 noundef %6) local_unnamed_addr #6 personality ptr @__gxx_personality_v0 {
  %8 = alloca %"class.cv::Mat", align 8
  %9 = alloca %"class.cv::Mat", align 8
  call void @llvm.lifetime.start.p0(i64 96, ptr nonnull %8) #21
  call void @llvm.lifetime.start.p0(i64 96, ptr nonnull %9) #21
  %10 = tail call noundef i32 @_ZNK2cv11_InputArray4kindEv(ptr noundef nonnull align 8 dereferenceable(24) %1), !noalias !34
  %11 = icmp eq i32 %10, 65536
  br i1 %11, label %12, label %15

12:                                               ; preds = %7
  %13 = getelementptr inbounds nuw i8, ptr %1, i64 8
  %14 = load ptr, ptr %13, align 8, !tbaa !28, !noalias !34
  call void @_ZN2cv3MatC1ERKS0_(ptr noundef nonnull align 8 dereferenceable(96) %9, ptr noundef nonnull align 8 dereferenceable(96) %14)
  br label %_ZNK2cv11_InputArray6getMatEi.exit

15:                                               ; preds = %7
  call void @_ZNK2cv11_InputArray7getMat_Ei(ptr dead_on_unwind nonnull writable sret(%"class.cv::Mat") align 8 %9, ptr noundef nonnull align 8 dereferenceable(24) %1, i32 noundef -1)
  br label %_ZNK2cv11_InputArray6getMatEi.exit

_ZNK2cv11_InputArray6getMatEi.exit:               ; preds = %12, %15
  %16 = getelementptr inbounds nuw i8, ptr %9, i64 16
  %17 = load ptr, ptr %16, align 8, !tbaa !37
  %18 = sext i32 %2 to i64
  %19 = getelementptr inbounds nuw i8, ptr %9, i64 72
  %20 = load ptr, ptr %19, align 8, !tbaa !46
  %21 = load i64, ptr %20, align 8, !tbaa !47
  %22 = mul i64 %21, %18
  %23 = getelementptr inbounds nuw i8, ptr %17, i64 %22
  %24 = sext i32 %3 to i64
  %25 = getelementptr inbounds nuw i8, ptr %20, i64 8
  %26 = load i64, ptr %25, align 8, !tbaa !47
  %27 = mul i64 %26, %24
  %28 = getelementptr inbounds nuw i8, ptr %23, i64 %27
  invoke void @_ZN2cv3MatC1EiiiPvm(ptr noundef nonnull align 8 dereferenceable(96) %8, i32 noundef %4, i32 noundef %5, i32 noundef %6, ptr noundef %28, i64 noundef 0)
          to label %29 unwind label %32

29:                                               ; preds = %_ZNK2cv11_InputArray6getMatEi.exit
  %30 = invoke noundef nonnull align 8 dereferenceable(96) ptr @_ZN2cv3MataSEOS0_(ptr noundef nonnull align 8 dereferenceable(96) %0, ptr noundef nonnull align 8 dereferenceable(96) %8)
          to label %31 unwind label %34

31:                                               ; preds = %29
  call void @_ZN2cv3MatD1Ev(ptr noundef nonnull align 8 dereferenceable(96) %8) #21
  call void @_ZN2cv3MatD1Ev(ptr noundef nonnull align 8 dereferenceable(96) %9) #21
  call void @llvm.lifetime.end.p0(i64 96, ptr nonnull %9) #21
  call void @llvm.lifetime.end.p0(i64 96, ptr nonnull %8) #21
  ret void

32:                                               ; preds = %_ZNK2cv11_InputArray6getMatEi.exit
  %33 = landingpad { ptr, i32 }
          cleanup
  br label %36

34:                                               ; preds = %29
  %35 = landingpad { ptr, i32 }
          cleanup
  call void @_ZN2cv3MatD1Ev(ptr noundef nonnull align 8 dereferenceable(96) %8) #21
  br label %36

36:                                               ; preds = %34, %32
  %.pn = phi { ptr, i32 } [ %35, %34 ], [ %33, %32 ]
  call void @_ZN2cv3MatD1Ev(ptr noundef nonnull align 8 dereferenceable(96) %9) #21
  call void @llvm.lifetime.end.p0(i64 96, ptr nonnull %9) #21
  call void @llvm.lifetime.end.p0(i64 96, ptr nonnull %8) #21
  resume { ptr, i32 } %.pn
}